target datalayout = "e-m:e-p270:32:32-p271:32:32-p272:64:64-i64:64-i128:128-f80:128-n8:16:32:64-S128"
target triple = "x86_64-pc-linux-gnu"

%"class.icu_77::UnicodeString" = type { %"class.icu_77::Replaceable", %"union.icu_77::UnicodeString::StackBufferOrFields" }
%"class.icu_77::Replaceable" = type { %"class.icu_77::UObject" }
%"class.icu_77::UObject" = type { ptr }
%"union.icu_77::UnicodeString::StackBufferOrFields" = type { %struct.anon.0, [32 x i8] }
%struct.anon.0 = type { i16, i32, i32, ptr }
%struct.anon = type { i16, [27 x i16] }

@_ZTVN6icu_777UObjectE = available_externally unnamed_addr constant { [5 x ptr] } { [5 x ptr] [ptr null, ptr @_ZTIN6icu_777UObjectE, ptr @_ZN6icu_777UObjectD1Ev, ptr @_ZN6icu_777UObjectD0Ev, ptr @_ZNK6icu_777UObject17getDynamicClassIDEv] }, align 8

; Function Attrs: inlinehint mustprogress nounwind uwtable
define linkonce_odr void @_ZN6icu_777UObjectC2Ev(ptr noundef nonnull align 8 dereferenceable(8) %0) unnamed_addr #2 comdat align 2 {
  %2 = alloca ptr, align 8
  store ptr %0, ptr %2, align 8, !tbaa !36
  %3 = load ptr, ptr %2, align 8
  store ptr getelementptr inbounds inrange(-16, 24) ({ [5 x ptr] }, ptr @_ZTVN6icu_777UObjectE, i32 0, i32 0, i32 2), ptr %3, align 8, !tbaa !18
  ret void
}

; Function Attrs: inlinehint mustprogress nounwind uwtable
define linkonce_odr noundef i32 @_ZNK6icu_7713UnicodeString14getShortLengthEv(ptr noundef nonnull align 8 dereferenceable(64) %0) #2 comdat align 2 {
  %2 = alloca ptr, align 8
  store ptr %0, ptr %2, align 8, !tbaa !26
  %3 = load ptr, ptr %2, align 8
  %4 = getelementptr inbounds nuw %"class.icu_77::UnicodeString", ptr %3, i32 0, i32 1
  %5 = getelementptr inbounds nuw %struct.anon.0, ptr %4, i32 0, i32 0
  %6 = load i16, ptr %5, align 8, !tbaa !25
  %7 = sext i16 %6 to i32
  %8 = ashr i32 %7, 5
  ret i32 %8
}

; Function Attrs: inlinehint mustprogress nounwind uwtable
define linkonce_odr noundef signext i8 @_ZNK6icu_7713UnicodeString14hasShortLengthEv(ptr noundef nonnull align 8 dereferenceable(64) %0) #2 comdat align 2 {
  %2 = alloca ptr, align 8
  store ptr %0, ptr %2, align 8, !tbaa !26
  %3 = load ptr, ptr %2, align 8
  %4 = getelementptr inbounds nuw %"class.icu_77::UnicodeString", ptr %3, i32 0, i32 1
  %5 = getelementptr inbounds nuw %struct.anon.0, ptr %4, i32 0, i32 0
  %6 = load i16, ptr %5, align 8, !tbaa !25
  %7 = sext i16 %6 to i32
  %8 = icmp sge i32 %7, 0
  %9 = zext i1 %8 to i8
  ret i8 %9
}

; Function Attrs: inlinehint mustprogress nounwind uwtable
define linkonce_odr void @_ZN6icu_7711ReplaceableC2Ev(ptr noundef nonnull align 8 dereferenceable(8) %0) unnamed_addr #2 comdat align 2 {
  %2 = alloca ptr, align 8
  store ptr %0, ptr %2, align 8, !tbaa !34
  %3 = load ptr, ptr %2, align 8
  call void @_ZN6icu_777UObjectC2Ev(ptr noundef nonnull align 8 dereferenceable(8) %3) #9
  store ptr getelementptr inbounds inrange(-16, 88) ({ [13 x ptr] }, ptr @_ZTVN6icu_7711ReplaceableE, i32 0, i32 0, i32 2), ptr %3, align 8, !tbaa !18
  ret void
}

; Function Attrs: inlinehint mustprogress nounwind uwtable
define linkonce_odr noundef ptr @_ZNK6icu_7713UnicodeString9getBufferEv(ptr noundef nonnull align 8 dereferenceable(64) %0) #2 comdat align 2 {
  %2 = alloca ptr, align 8
  %3 = alloca ptr, align 8
  store ptr %0, ptr %3, align 8, !tbaa !26
  %4 = load ptr, ptr %3, align 8
  %5 = getelementptr inbounds nuw %"class.icu_77::UnicodeString", ptr %4, i32 0, i32 1
  %6 = getelementptr inbounds nuw %struct.anon.0, ptr %5, i32 0, i32 0
  %7 = load i16, ptr %6, align 8, !tbaa !25
  %8 = sext i16 %7 to i32
  %9 = and i32 %8, 17
  %10 = icmp ne i32 %9, 0
  br i1 %10, label %11, label %12

11:                                               ; preds = %1
  store ptr null, ptr %2, align 8
  br label %27

12:                                               ; preds = %1
  %13 = getelementptr inbounds nuw %"class.icu_77::UnicodeString", ptr %4, i32 0, i32 1
  %14 = getelementptr inbounds nuw %struct.anon.0, ptr %13, i32 0, i32 0
  %15 = load i16, ptr %14, align 8, !tbaa !25
  %16 = sext i16 %15 to i32
  %17 = and i32 %16, 2
  %18 = icmp ne i32 %17, 0
  br i1 %18, label %19, label %23

19:                                               ; preds = %12
  %20 = getelementptr inbounds nuw %"class.icu_77::UnicodeString", ptr %4, i32 0, i32 1
  %21 = getelementptr inbounds nuw %struct.anon, ptr %20, i32 0, i32 1
  %22 = getelementptr inbounds [27 x i16], ptr %21, i64 0, i64 0
  store ptr %22, ptr %2, align 8
  br label %27

23:                                               ; preds = %12
  %24 = getelementptr inbounds nuw %"class.icu_77::UnicodeString", ptr %4, i32 0, i32 1
  %25 = getelementptr inbounds nuw %struct.anon.0, ptr %24, i32 0, i32 3
  %26 = load ptr, ptr %25, align 8, !tbaa !25
  store ptr %26, ptr %2, align 8
  br label %27

27:                                               ; preds = %23, %19, %11
  %28 = load ptr, ptr %2, align 8
  ret ptr %28
}

; Function Attrs: inlinehint mustprogress uwtable
define linkonce_odr noundef i32 @_ZNK6icu_7713UnicodeString6lengthEv(ptr noundef nonnull align 8 dereferenceable(64) %0) #6 comdat align 2 {
  %2 = alloca ptr, align 8
  store ptr %0, ptr %2, align 8, !tbaa !26
  %3 = load ptr, ptr %2, align 8
  %4 = call noundef signext i8 @_ZNK6icu_7713UnicodeString14hasShortLengthEv(ptr noundef nonnull align 8 dereferenceable(64) %3)
  %5 = icmp ne i8 %4, 0
  br i1 %5, label %6, label %8

6:                                                ; preds = %1
  %7 = call noundef i32 @_ZNK6icu_7713UnicodeString14getShortLengthEv(ptr noundef nonnull align 8 dereferenceable(64) %3)
  br label %12

8:                                                ; preds = %1
  %9 = getelementptr inbounds nuw %"class.icu_77::UnicodeString", ptr %3, i32 0, i32 1
  %10 = getelementptr inbounds nuw %struct.anon.0, ptr %9, i32 0, i32 1
  %11 = load i32, ptr %10, align 4, !tbaa !25
  br label %12

12:                                               ; preds = %8, %6
  %13 = phi i32 [ %7, %6 ], [ %11, %8 ]
  ret i32 %13
}

; Function Attrs: inlinehint mustprogress uwtable
define linkonce_odr void @_ZN6icu_7713UnicodeStringC2Ev(ptr noundef nonnull align 8 dereferenceable(64) %0) unnamed_addr #6 comdat align 2 {
  %2 = alloca ptr, align 8
  store ptr %0, ptr %2, align 8, !tbaa !26
  %3 = load ptr, ptr %2, align 8
  call void @_ZN6icu_7711ReplaceableC2Ev(ptr noundef nonnull align 8 dereferenceable(8) %3)
  store ptr getelementptr inbounds inrange(-16, 88) ({ [13 x ptr] }, ptr @_ZTVN6icu_7713UnicodeStringE, i32 0, i32 0, i32 2), ptr %3, align 8, !tbaa !18
  %4 = getelementptr inbounds nuw %"class.icu_77::UnicodeString", ptr %3, i32 0, i32 1
  %5 = getelementptr inbounds nuw %struct.anon, ptr %4, i32 0, i32 0
  store i16 2, ptr %5, align 8, !tbaa !25
  ret void
}

; Function Attrs: mustprogress uwtable
define void @vzone_writeFromStart_77(ptr noundef %0, double noundef %1, ptr noundef nonnull align 8 dereferenceable(8) %2, ptr noundef nonnull align 4 dereferenceable(4) %3, ptr noundef nonnull align 4 dereferenceable(4) %4) #0 personality ptr @__gxx_personality_v0 {
  %6 = alloca ptr, align 8
  %7 = alloca double, align 8
  %8 = alloca ptr, align 8
  %9 = alloca ptr, align 8
  %10 = alloca ptr, align 8
  %11 = alloca %"class.icu_77::UnicodeString", align 8
  %12 = alloca ptr, align 8
  %13 = alloca i32, align 4
  store ptr %0, ptr %6, align 8, !tbaa !16
  store double %1, ptr %7, align 8, !tbaa !30
  store ptr %2, ptr %8, align 8, !tbaa !20
  store ptr %3, ptr %9, align 8, !tbaa !23
  store ptr %4, ptr %10, align 8, !tbaa !15
  call void @llvm.lifetime.start.p0(i64 64, ptr %11) #9
  call void @_ZN6icu_7713UnicodeStringC2Ev(ptr noundef nonnull align 8 dereferenceable(64) %11)
  %14 = load ptr, ptr %6, align 8, !tbaa !16
  %15 = load double, ptr %7, align 8, !tbaa !30
  %16 = load ptr, ptr %10, align 8, !tbaa !15
  invoke void @_ZNK6icu_779VTimeZone5writeEdRNS_13UnicodeStringER10UErrorCode(ptr noundef nonnull align 8 dereferenceable(288) %14, double noundef %15, ptr noundef nonnull align 8 dereferenceable(64) %11, ptr noundef nonnull align 4 dereferenceable(4) %16)
          to label %17 unwind label %34

17:                                               ; preds = %5
  %18 = invoke noundef i32 @_ZNK6icu_7713UnicodeString6lengthEv(ptr noundef nonnull align 8 dereferenceable(64) %11)
          to label %19 unwind label %34

19:                                               ; preds = %17
  %20 = load ptr, ptr %9, align 8, !tbaa !23
  store i32 %18, ptr %20, align 4, !tbaa !8
  %21 = load ptr, ptr %9, align 8, !tbaa !23
  %22 = load i32, ptr %21, align 4, !tbaa !8
  %23 = sext i32 %22 to i64
  %24 = invoke noalias ptr @uprv_malloc_77(i64 noundef %23) #10
          to label %25 unwind label %34

25:                                               ; preds = %19
  %26 = load ptr, ptr %8, align 8, !tbaa !20
  store ptr %24, ptr %26, align 8, !tbaa !3
  %27 = load ptr, ptr %8, align 8, !tbaa !20
  %28 = load ptr, ptr %27, align 8, !tbaa !3
  %29 = invoke noundef ptr @_ZNK6icu_7713UnicodeString9getBufferEv(ptr noundef nonnull align 8 dereferenceable(64) %11)
          to label %30 unwind label %34

30:                                               ; preds = %25
  %31 = load ptr, ptr %9, align 8, !tbaa !23
  %32 = load i32, ptr %31, align 4, !tbaa !8
  %33 = sext i32 %32 to i64
  call void @llvm.memcpy.p0.p0.i64(ptr align 2 %28, ptr align 2 %29, i64 %33, i1 false)
  call void @_ZN6icu_7713UnicodeStringD1Ev(ptr noundef nonnull align 8 dereferenceable(64) %11) #9
  call void @llvm.lifetime.end.p0(i64 64, ptr %11) #9
  ret void

34:                                               ; preds = %25, %19, %17, %5
  %35 = landingpad { ptr, i32 }
          cleanup
  %36 = extractvalue { ptr, i32 } %35, 0
  store ptr %36, ptr %12, align 8
  %37 = extractvalue { ptr, i32 } %35, 1
  store i32 %37, ptr %13, align 4
  call void @_ZN6icu_7713UnicodeStringD1Ev(ptr noundef nonnull align 8 dereferenceable(64) %11) #9
  call void @llvm.lifetime.end.p0(i64 64, ptr %11) #9
  br label %38

38:                                               ; preds = %34
  %39 = load ptr, ptr %12, align 8
  %40 = load i32, ptr %13, align 4
  %41 = insertvalue { ptr, i32 } poison, ptr %39, 0
  %42 = insertvalue { ptr, i32 } %41, i32 %40, 1
  resume { ptr, i32 } %42
}